; Function Attrs: mustprogress uwtable
define hidden noundef zeroext i1 @_ZNK5osgeo4proj5datum29DynamicVerticalReferenceFrame15_isEquivalentToEPKNS0_4util11IComparableENS4_9CriterionERKSt10shared_ptrINS0_2io15DatabaseContextEE(ptr noundef nonnull align 8 dereferenceable(80) %0, ptr noundef %1, i32 noundef %2, ptr noundef nonnull align 8 dereferenceable(16) %3) unnamed_addr #0 align 2 personality ptr @__gxx_personality_v0 {
  %5 = icmp eq i32 %2, 0
  br i1 %5, label %7, label %.split

.split:                                           ; preds = %4
  %6 = tail call noundef zeroext i1 @_ZNK5osgeo4proj5datum22VerticalReferenceFrame30isEquivalentToNoExactTypeCheckEPKNS0_4util11IComparableENS4_9CriterionERKSt10shared_ptrINS0_2io15DatabaseContextEE(ptr noundef nonnull align 8 dereferenceable(72) %0, ptr noundef %1, i32 noundef %2, ptr noundef nonnull align 8 dereferenceable(16) %3)
  br i1 %6, label %28, label %.thread15

7:                                                ; preds = %4
  %8 = invoke noundef i64 @_ZSt11_Hash_bytesPKvmm(ptr noundef nonnull @_ZTSN5osgeo4proj5datum29DynamicVerticalReferenceFrameE, i64 noundef 50, i64 noundef 3339675911)
          to label %_ZNKSt9type_info9hash_codeEv.exit.i unwind label %9

9:                                                ; preds = %7
  %10 = landingpad { ptr, i32 }
          catch ptr null
  %11 = extractvalue { ptr, i32 } %10, 0
  tail call void @__clang_call_terminate(ptr %11) #29
  unreachable

_ZNKSt9type_info9hash_codeEv.exit.i:              ; preds = %7
  %12 = load ptr, ptr %1, align 8
  %13 = getelementptr inbounds i8, ptr %12, i64 -8
  %14 = load ptr, ptr %13, align 8
  %15 = getelementptr inbounds i8, ptr %14, i64 8
  %16 = load ptr, ptr %15, align 8
  %17 = load i8, ptr %16, align 1
  %18 = icmp eq i8 %17, 42
  %.idx.i.i.i = zext i1 %18 to i64
  %19 = getelementptr inbounds i8, ptr %16, i64 %.idx.i.i.i
  %20 = tail call i64 @strlen(ptr noundef nonnull dereferenceable(1) %19) #26
  %21 = invoke noundef i64 @_ZSt11_Hash_bytesPKvmm(ptr noundef nonnull %19, i64 noundef %20, i64 noundef 3339675911)
          to label %_ZN5osgeo4proj4util13isOfExactTypeINS0_5datum29DynamicVerticalReferenceFrameENS1_11IComparableEEEbRKT0_.exit unwind label %22

22:                                               ; preds = %_ZNKSt9type_info9hash_codeEv.exit.i
  %23 = landingpad { ptr, i32 }
          catch ptr null
  %24 = extractvalue { ptr, i32 } %23, 0
  tail call void @__clang_call_terminate(ptr %24) #29
  unreachable

_ZN5osgeo4proj4util13isOfExactTypeINS0_5datum29DynamicVerticalReferenceFrameENS1_11IComparableEEEbRKT0_.exit: ; preds = %_ZNKSt9type_info9hash_codeEv.exit.i
  %25 = icmp eq i64 %8, %21
  br i1 %25, label %26, label %.thread15

26:                                               ; preds = %_ZN5osgeo4proj4util13isOfExactTypeINS0_5datum29DynamicVerticalReferenceFrameENS1_11IComparableEEEbRKT0_.exit
  %27 = tail call noundef zeroext i1 @_ZNK5osgeo4proj5datum22VerticalReferenceFrame30isEquivalentToNoExactTypeCheckEPKNS0_4util11IComparableENS4_9CriterionERKSt10shared_ptrINS0_2io15DatabaseContextEE(ptr noundef nonnull align 8 dereferenceable(72) %0, ptr noundef nonnull %1, i32 noundef 0, ptr noundef nonnull align 8 dereferenceable(16) %3)
  br i1 %27, label %.thread, label %.thread15

28:                                               ; preds = %.split
  %29 = icmp eq ptr %1, null
  br i1 %29, label %.thread15, label %.thread

.thread:                                          ; preds = %26, %28
  %30 = tail call ptr @__dynamic_cast(ptr nonnull %1, ptr nonnull @_ZTIN5osgeo4proj4util11IComparableE, ptr nonnull @_ZTIN5osgeo4proj5datum29DynamicVerticalReferenceFrameE, i64 16) #26
  %31 = icmp eq ptr %30, null
  br i1 %31, label %.thread15, label %32

32:                                               ; preds = %.thread
  %33 = getelementptr inbounds i8, ptr %0, i64 72
  %34 = load ptr, ptr %33, align 8
  %35 = getelementptr inbounds i8, ptr %30, i64 72
  %36 = load ptr, ptr %35, align 8
  %37 = tail call noundef zeroext i1 @_ZNK5osgeo4proj6common7Measure15_isEquivalentToERKS2_NS0_4util11IComparable9CriterionEd(ptr noundef nonnull align 8 dereferenceable(24) %34, ptr noundef nonnull align 8 dereferenceable(24) %36, i32 noundef %2, double noundef 1.000000e-10)
  br i1 %37, label %38, label %.thread15

38:                                               ; preds = %32
  %39 = load ptr, ptr %33, align 8
  %40 = getelementptr inbounds i8, ptr %39, i64 32
  %41 = tail call noundef ptr @_ZNKSt7__cxx1112basic_stringIcSt11char_traitsIcESaIcEE5c_strEv(ptr noundef nonnull align 8 dereferenceable(32) %40) #26
  %42 = load ptr, ptr %35, align 8
  %43 = getelementptr inbounds i8, ptr %42, i64 32
  %44 = tail call noundef ptr @_ZNKSt7__cxx1112basic_stringIcSt11char_traitsIcESaIcEE5c_strEv(ptr noundef nonnull align 8 dereferenceable(32) %43) #26
  %45 = tail call noundef zeroext i1 @_ZN5osgeo4proj8metadata10Identifier16isEquivalentNameEPKcS4_(ptr noundef %41, ptr noundef %44) #26
  br label %.thread15

.thread15:                                        ; preds = %28, %.split, %32, %38, %.thread, %26, %_ZN5osgeo4proj4util13isOfExactTypeINS0_5datum29DynamicVerticalReferenceFrameENS1_11IComparableEEEbRKT0_.exit
  %.0 = phi i1 [ false, %_ZN5osgeo4proj4util13isOfExactTypeINS0_5datum29DynamicVerticalReferenceFrameENS1_11IComparableEEEbRKT0_.exit ], [ false, %26 ], [ true, %.thread ], [ false, %32 ], [ %45, %38 ], [ false, %.split ], [ true, %28 ]
  ret i1 %.0
}